#include <math.h>
#include <stdio.h>
#include <stdlib.h>
#include <string.h>
#include <iostream>
using namespace std;

int main ()
{
	int a,b,c,d,e;		//??ABCDE????
	int word[6];		//?????
	for ( a = 1 ; a <= 5; a ++ )
		for ( b = 1; b <=5; b ++ )
			for ( c = 1; c <= 5; c ++ )
				for ( d = 1; d <= 5; d ++ )
					for ( e = 1; e <= 5; e ++ )
					{
						if ( a==b||a==c||a==d||a==e||b==c||b==d||b==e||c==d||c==e||d==e ) continue;
						word[a] = ( e == 1 );
						word[b] = ( b == 2 );
						word[c] = ( a == 5 );
						word[d] = ( c != 1 );
						word[e] = ( d == 1 );
						if ( word[1]==1&&word[2]==1&&word[3]==0&&word[4]==0&&word[5]==0&&e!=2&&e!=3 )
							cout << a << " " << b << " " << c << " " << d << " " << e;
					}
	return 0;
}